; ModuleID = '32/469.c'
source_filename = "32/469.c"
target datalayout = "e-m:e-p270:32:32-p271:32:32-p272:64:64-i64:64-f80:128-n8:16:32:64-S128"
target triple = "x86_64-pc-linux-gnu"

@.str = private unnamed_addr constant [3 x i8] c"%d\00", align 1
@.str.1 = private unnamed_addr constant [3 x i8] c"%s\00", align 1
@.str.2 = private unnamed_addr constant [4 x i8] c"%s\0A\00", align 1

; Function Attrs: noinline nounwind uwtable
define dso_local i32 @main() #0 {
  %1 = alloca i32, align 4
  %2 = alloca [100 x i8], align 16
  %3 = alloca [100 x i8], align 16
  %4 = alloca [100 x i8], align 16
  %5 = alloca i32, align 4
  %6 = alloca i32, align 4
  %7 = alloca i32, align 4
  %8 = alloca i32, align 4
  %9 = alloca i32, align 4
  store i32 0, i32* %1, align 4
  %10 = bitcast [100 x i8]* %4 to i8*
  call void @llvm.memset.p0i8.i64(i8* align 16 %10, i8 0, i64 100, i1 false)
  %11 = call i32 (i8*, ...) @__isoc99_scanf(i8* getelementptr inbounds ([3 x i8], [3 x i8]* @.str, i64 0, i64 0), i32* %9)
  store i32 0, i32* %8, align 4
  br label %12

12:                                               ; preds = %121, %0
  %13 = load i32, i32* %8, align 4
  %14 = load i32, i32* %9, align 4
  %15 = icmp slt i32 %13, %14
  br i1 %15, label %16, label %124

16:                                               ; preds = %12
  %17 = getelementptr inbounds [100 x i8], [100 x i8]* %2, i64 0, i64 0
  %18 = call i32 (i8*, ...) @__isoc99_scanf(i8* getelementptr inbounds ([3 x i8], [3 x i8]* @.str.1, i64 0, i64 0), i8* %17)
  %19 = getelementptr inbounds [100 x i8], [100 x i8]* %3, i64 0, i64 0
  %20 = call i32 (i8*, ...) @__isoc99_scanf(i8* getelementptr inbounds ([3 x i8], [3 x i8]* @.str.1, i64 0, i64 0), i8* %19)
  %21 = getelementptr inbounds [100 x i8], [100 x i8]* %2, i64 0, i64 0
  call void @usd(i8* %21)
  %22 = getelementptr inbounds [100 x i8], [100 x i8]* %3, i64 0, i64 0
  call void @usd(i8* %22)
  store i32 0, i32* %7, align 4
  store i32 0, i32* %5, align 4
  br label %23

23:                                               ; preds = %91, %16
  %24 = load i32, i32* %5, align 4
  %25 = sext i32 %24 to i64
  %26 = getelementptr inbounds [100 x i8], [100 x i8]* %3, i64 0, i64 %25
  %27 = load i8, i8* %26, align 1
  %28 = sext i8 %27 to i32
  %29 = icmp ne i32 %28, 0
  br i1 %29, label %30, label %94

30:                                               ; preds = %23
  %31 = load i32, i32* %5, align 4
  %32 = sext i32 %31 to i64
  %33 = getelementptr inbounds [100 x i8], [100 x i8]* %2, i64 0, i64 %32
  %34 = load i8, i8* %33, align 1
  %35 = sext i8 %34 to i32
  %36 = load i32, i32* %5, align 4
  %37 = sext i32 %36 to i64
  %38 = getelementptr inbounds [100 x i8], [100 x i8]* %3, i64 0, i64 %37
  %39 = load i8, i8* %38, align 1
  %40 = sext i8 %39 to i32
  %41 = icmp sge i32 %35, %40
  br i1 %41, label %42, label %59

42:                                               ; preds = %30
  %43 = load i32, i32* %5, align 4
  %44 = sext i32 %43 to i64
  %45 = getelementptr inbounds [100 x i8], [100 x i8]* %2, i64 0, i64 %44
  %46 = load i8, i8* %45, align 1
  %47 = sext i8 %46 to i32
  %48 = load i32, i32* %5, align 4
  %49 = sext i32 %48 to i64
  %50 = getelementptr inbounds [100 x i8], [100 x i8]* %3, i64 0, i64 %49
  %51 = load i8, i8* %50, align 1
  %52 = sext i8 %51 to i32
  %53 = sub nsw i32 %47, %52
  %54 = add nsw i32 %53, 48
  %55 = trunc i32 %54 to i8
  %56 = load i32, i32* %5, align 4
  %57 = sext i32 %56 to i64
  %58 = getelementptr inbounds [100 x i8], [100 x i8]* %4, i64 0, i64 %57
  store i8 %55, i8* %58, align 1
  br label %88

59:                                               ; preds = %30
  %60 = load i32, i32* %5, align 4
  %61 = sext i32 %60 to i64
  %62 = getelementptr inbounds [100 x i8], [100 x i8]* %2, i64 0, i64 %61
  %63 = load i8, i8* %62, align 1
  %64 = sext i8 %63 to i32
  %65 = add nsw i32 %64, 58
  %66 = load i32, i32* %5, align 4
  %67 = sext i32 %66 to i64
  %68 = getelementptr inbounds [100 x i8], [100 x i8]* %3, i64 0, i64 %67
  %69 = load i8, i8* %68, align 1
  %70 = sext i8 %69 to i32
  %71 = sub nsw i32 %65, %70
  %72 = trunc i32 %71 to i8
  %73 = load i32, i32* %5, align 4
  %74 = sext i32 %73 to i64
  %75 = getelementptr inbounds [100 x i8], [100 x i8]* %4, i64 0, i64 %74
  store i8 %72, i8* %75, align 1
  %76 = load i32, i32* %5, align 4
  %77 = add nsw i32 %76, 1
  %78 = sext i32 %77 to i64
  %79 = getelementptr inbounds [100 x i8], [100 x i8]* %2, i64 0, i64 %78
  %80 = load i8, i8* %79, align 1
  %81 = sext i8 %80 to i32
  %82 = sub nsw i32 %81, 1
  %83 = trunc i32 %82 to i8
  %84 = load i32, i32* %5, align 4
  %85 = add nsw i32 %84, 1
  %86 = sext i32 %85 to i64
  %87 = getelementptr inbounds [100 x i8], [100 x i8]* %2, i64 0, i64 %86
  store i8 %83, i8* %87, align 1
  br label %88

88:                                               ; preds = %59, %42
  %89 = load i32, i32* %7, align 4
  %90 = add nsw i32 %89, 1
  store i32 %90, i32* %7, align 4
  br label %91

91:                                               ; preds = %88
  %92 = load i32, i32* %5, align 4
  %93 = add nsw i32 %92, 1
  store i32 %93, i32* %5, align 4
  br label %23

94:                                               ; preds = %23
  %95 = load i32, i32* %7, align 4
  store i32 %95, i32* %6, align 4
  br label %96

96:                                               ; preds = %111, %94
  %97 = load i32, i32* %6, align 4
  %98 = sext i32 %97 to i64
  %99 = getelementptr inbounds [100 x i8], [100 x i8]* %2, i64 0, i64 %98
  %100 = load i8, i8* %99, align 1
  %101 = sext i8 %100 to i32
  %102 = icmp ne i32 %101, 0
  br i1 %102, label %103, label %114

103:                                              ; preds = %96
  %104 = load i32, i32* %6, align 4
  %105 = sext i32 %104 to i64
  %106 = getelementptr inbounds [100 x i8], [100 x i8]* %2, i64 0, i64 %105
  %107 = load i8, i8* %106, align 1
  %108 = load i32, i32* %6, align 4
  %109 = sext i32 %108 to i64
  %110 = getelementptr inbounds [100 x i8], [100 x i8]* %4, i64 0, i64 %109
  store i8 %107, i8* %110, align 1
  br label %111

111:                                              ; preds = %103
  %112 = load i32, i32* %6, align 4
  %113 = add nsw i32 %112, 1
  store i32 %113, i32* %6, align 4
  br label %96

114:                                              ; preds = %96
  %115 = load i32, i32* %6, align 4
  %116 = sext i32 %115 to i64
  %117 = getelementptr inbounds [100 x i8], [100 x i8]* %4, i64 0, i64 %116
  store i8 0, i8* %117, align 1
  %118 = getelementptr inbounds [100 x i8], [100 x i8]* %4, i64 0, i64 0
  call void @usd(i8* %118)
  %119 = getelementptr inbounds [100 x i8], [100 x i8]* %4, i64 0, i64 0
  %120 = call i32 (i8*, ...) @printf(i8* getelementptr inbounds ([4 x i8], [4 x i8]* @.str.2, i64 0, i64 0), i8* %119)
  br label %121

121:                                              ; preds = %114
  %122 = load i32, i32* %8, align 4
  %123 = add nsw i32 %122, 1
  store i32 %123, i32* %8, align 4
  br label %12

124:                                              ; preds = %12
  %125 = load i32, i32* %1, align 4
  ret i32 %125
}

; Function Attrs: argmemonly nounwind willreturn
declare void @llvm.memset.p0i8.i64(i8* nocapture writeonly, i8, i64, i1 immarg) #1

declare dso_local i32 @__isoc99_scanf(i8*, ...) #2

; Function Attrs: noinline nounwind uwtable
define dso_local void @usd(i8* %0) #0 {
  %2 = alloca i8*, align 8
  %3 = alloca i32, align 4
  %4 = alloca i32, align 4
  %5 = alloca i32, align 4
  %6 = alloca i8, align 1
  store i8* %0, i8** %2, align 8
  %7 = load i8*, i8** %2, align 8
  %8 = call i64 @strlen(i8* %7) #4
  %9 = trunc i64 %8 to i32
  store i32 %9, i32* %3, align 4
  %10 = load i32, i32* %3, align 4
  %11 = sdiv i32 %10, 2
  store i32 %11, i32* %4, align 4
  store i32 0, i32* %5, align 4
  br label %12

12:                                               ; preds = %42, %1
  %13 = load i32, i32* %5, align 4
  %14 = load i32, i32* %4, align 4
  %15 = icmp slt i32 %13, %14
  br i1 %15, label %16, label %45

16:                                               ; preds = %12
  %17 = load i8*, i8** %2, align 8
  %18 = load i32, i32* %5, align 4
  %19 = sext i32 %18 to i64
  %20 = getelementptr inbounds i8, i8* %17, i64 %19
  %21 = load i8, i8* %20, align 1
  store i8 %21, i8* %6, align 1
  %22 = load i8*, i8** %2, align 8
  %23 = load i32, i32* %3, align 4
  %24 = sub nsw i32 %23, 1
  %25 = load i32, i32* %5, align 4
  %26 = sub nsw i32 %24, %25
  %27 = sext i32 %26 to i64
  %28 = getelementptr inbounds i8, i8* %22, i64 %27
  %29 = load i8, i8* %28, align 1
  %30 = load i8*, i8** %2, align 8
  %31 = load i32, i32* %5, align 4
  %32 = sext i32 %31 to i64
  %33 = getelementptr inbounds i8, i8* %30, i64 %32
  store i8 %29, i8* %33, align 1
  %34 = load i8, i8* %6, align 1
  %35 = load i8*, i8** %2, align 8
  %36 = load i32, i32* %3, align 4
  %37 = sub nsw i32 %36, 1
  %38 = load i32, i32* %5, align 4
  %39 = sub nsw i32 %37, %38
  %40 = sext i32 %39 to i64
  %41 = getelementptr inbounds i8, i8* %35, i64 %40
  store i8 %34, i8* %41, align 1
  br label %42

42:                                               ; preds = %16
  %43 = load i32, i32* %5, align 4
  %44 = add nsw i32 %43, 1
  store i32 %44, i32* %5, align 4
  br label %12

45:                                               ; preds = %12
  ret void
}

declare dso_local i32 @printf(i8*, ...) #2

; Function Attrs: nounwind readonly
declare dso_local i64 @strlen(i8*) #3


!llvm.module.flags = !{!0}
!llvm.ident = !{!1}

!0 = !{i32 1, !"wchar_size", i32 4}
!1 = !{!"clang version 10.0.0-4ubuntu1 "}
